target datalayout = "e-m:e-p270:32:32-p271:32:32-p272:64:64-i64:64-i128:128-f80:128-n8:16:32:64-S128"
target triple = "x86_64-unknown-linux-gnu"

%"class.std::__cxx11::basic_string" = type { %"struct.std::__cxx11::basic_string<char>::_Alloc_hider", i64, %union.anon }
%"struct.std::__cxx11::basic_string<char>::_Alloc_hider" = type { ptr }
%union.anon = type { i64, [8 x i8] }
%"class.facebook::velox::cache::SsdCache" = type <{ %"class.std::__cxx11::basic_string", i32, [4 x i8], %"class.std::vector", %"struct.std::atomic", [4 x i8], %"class.std::unique_ptr", ptr, %"struct.std::atomic.5", [7 x i8] }>
%"class.std::vector" = type { %"struct.std::_Vector_base" }
%"struct.std::_Vector_base" = type { %"struct.std::_Vector_base<std::unique_ptr<facebook::velox::cache::SsdFile>, std::allocator<std::unique_ptr<facebook::velox::cache::SsdFile>>>::_Vector_impl" }
%"struct.std::_Vector_base<std::unique_ptr<facebook::velox::cache::SsdFile>, std::allocator<std::unique_ptr<facebook::velox::cache::SsdFile>>>::_Vector_impl" = type { %"struct.std::_Vector_base<std::unique_ptr<facebook::velox::cache::SsdFile>, std::allocator<std::unique_ptr<facebook::velox::cache::SsdFile>>>::_Vector_impl_data" }
%"struct.std::_Vector_base<std::unique_ptr<facebook::velox::cache::SsdFile>, std::allocator<std::unique_ptr<facebook::velox::cache::SsdFile>>>::_Vector_impl_data" = type { ptr, ptr, ptr }
%"struct.std::atomic" = type { %"struct.std::__atomic_base" }
%"struct.std::__atomic_base" = type { i32 }
%"class.std::unique_ptr" = type { %"struct.std::__uniq_ptr_data" }
%"struct.std::__uniq_ptr_data" = type { %"class.std::__uniq_ptr_impl" }
%"class.std::__uniq_ptr_impl" = type { %"class.std::tuple" }
%"class.std::tuple" = type { %"struct.std::_Tuple_impl" }
%"struct.std::_Tuple_impl" = type { %"struct.std::_Head_base.4" }
%"struct.std::_Head_base.4" = type { ptr }
%"struct.std::atomic.5" = type { %"struct.std::__atomic_base.6" }
%"struct.std::__atomic_base.6" = type { i8 }

; Function Attrs: noreturn nounwind uwtable
define linkonce_odr hidden void @__clang_call_terminate(ptr noundef %0) #5 comdat {
  %2 = call ptr @__cxa_begin_catch(ptr %0) #16
  call void @_ZSt9terminatev() #20
  unreachable
}

; Function Attrs: mustprogress nounwind uwtable
define linkonce_odr noundef i32 @_ZStanSt12memory_orderSt23__memory_order_modifier(i32 noundef %__m, i32 noundef %__mod) #2 comdat {
entry:
  %__m.addr = alloca i32, align 4
  %__mod.addr = alloca i32, align 4
  store i32 %__m, ptr %__m.addr, align 4
  store i32 %__mod, ptr %__mod.addr, align 4
  %0 = load i32, ptr %__m.addr, align 4
  %1 = load i32, ptr %__mod.addr, align 4
  %and = and i32 %0, %1
  ret i32 %and
}

; Function Attrs: mustprogress nounwind uwtable
define linkonce_odr noundef zeroext i1 @_ZNKSt6atomicIbEcvbEv(ptr noundef nonnull align 1 dereferenceable(1) %this) #2 comdat align 2 personality ptr @__gxx_personality_v0 {
entry:
  %this.addr.i = alloca ptr, align 8
  %__m.addr.i = alloca i32, align 4
  %__b.i = alloca i32, align 4
  %atomic-temp.i = alloca i8, align 1
  %this.addr = alloca ptr, align 8
  store ptr %this, ptr %this.addr, align 8
  %this1 = load ptr, ptr %this.addr, align 8
  %_M_base = getelementptr inbounds %"struct.std::atomic.5", ptr %this1, i32 0, i32 0
  store ptr %_M_base, ptr %this.addr.i, align 8
  store i32 5, ptr %__m.addr.i, align 4
  %this1.i = load ptr, ptr %this.addr.i, align 8
  %0 = load i32, ptr %__m.addr.i, align 4
  %call.i = invoke noundef i32 @_ZStanSt12memory_orderSt23__memory_order_modifier(i32 noundef %0, i32 noundef 65535)
          to label %invoke.cont.i unwind label %terminate.lpad.i

invoke.cont.i:                                    ; preds = %entry
  store i32 %call.i, ptr %__b.i, align 4
  %1 = load i32, ptr %__m.addr.i, align 4
  switch i32 %1, label %monotonic.i [
    i32 1, label %acquire.i
    i32 2, label %acquire.i
    i32 5, label %seqcst.i
  ]

monotonic.i:                                      ; preds = %invoke.cont.i
  %2 = load atomic i8, ptr %this1.i monotonic, align 1
  store i8 %2, ptr %atomic-temp.i, align 1
  br label %_ZNKSt13__atomic_baseIbE4loadESt12memory_order.exit

acquire.i:                                        ; preds = %invoke.cont.i, %invoke.cont.i
  %3 = load atomic i8, ptr %this1.i acquire, align 1
  store i8 %3, ptr %atomic-temp.i, align 1
  br label %_ZNKSt13__atomic_baseIbE4loadESt12memory_order.exit

seqcst.i:                                         ; preds = %invoke.cont.i
  %4 = load atomic i8, ptr %this1.i seq_cst, align 1
  store i8 %4, ptr %atomic-temp.i, align 1
  br label %_ZNKSt13__atomic_baseIbE4loadESt12memory_order.exit

terminate.lpad.i:                                 ; preds = %entry
  %5 = landingpad { ptr, i32 }
          catch ptr null
  %6 = extractvalue { ptr, i32 } %5, 0
  call void @__clang_call_terminate(ptr %6) #20
  unreachable

_ZNKSt13__atomic_baseIbE4loadESt12memory_order.exit: ; preds = %seqcst.i, %acquire.i, %monotonic.i
  %7 = load i8, ptr %atomic-temp.i, align 1
  %tobool.i = trunc i8 %7 to i1
  ret i1 %tobool.i
}

; Function Attrs: mustprogress nounwind uwtable
define noundef zeroext i1 @_ZN8facebook5velox5cache8SsdCache10startWriteEv(ptr noundef nonnull align 8 dereferenceable(89) %this) #2 align 2 {
entry:
  %this.addr.i8 = alloca ptr, align 8
  %__i.addr.i9 = alloca i32, align 4
  %__m.addr.i10 = alloca i32, align 4
  %.atomictmp.i11 = alloca i32, align 4
  %atomic-temp.i12 = alloca i32, align 4
  %this.addr.i = alloca ptr, align 8
  %__i.addr.i = alloca i32, align 4
  %__m.addr.i = alloca i32, align 4
  %.atomictmp.i = alloca i32, align 4
  %atomic-temp.i = alloca i32, align 4
  %retval = alloca i1, align 1
  %this.addr = alloca ptr, align 8
  store ptr %this, ptr %this.addr, align 8
  %this1 = load ptr, ptr %this.addr, align 8
  %isShutdown_ = getelementptr inbounds %"class.facebook::velox::cache::SsdCache", ptr %this1, i32 0, i32 8
  %call = call noundef zeroext i1 @_ZNKSt6atomicIbEcvbEv(ptr noundef nonnull align 1 dereferenceable(1) %isShutdown_) #16
  br i1 %call, label %if.then, label %if.end

if.then:                                          ; preds = %entry
  store i1 false, ptr %retval, align 1
  br label %return

if.end:                                           ; preds = %entry
  %writesInProgress_ = getelementptr inbounds %"class.facebook::velox::cache::SsdCache", ptr %this1, i32 0, i32 4
  %numShards_ = getelementptr inbounds %"class.facebook::velox::cache::SsdCache", ptr %this1, i32 0, i32 1
  %0 = load i32, ptr %numShards_, align 8
  store ptr %writesInProgress_, ptr %this.addr.i, align 8
  store i32 %0, ptr %__i.addr.i, align 4
  store i32 5, ptr %__m.addr.i, align 4
  %this1.i = load ptr, ptr %this.addr.i, align 8
  %1 = load i32, ptr %__m.addr.i, align 4
  %2 = load i32, ptr %__i.addr.i, align 4
  store i32 %2, ptr %.atomictmp.i, align 4
  switch i32 %1, label %monotonic.i [
    i32 1, label %acquire.i
    i32 2, label %acquire.i
    i32 3, label %release.i
    i32 4, label %acqrel.i
    i32 5, label %seqcst.i
  ]

monotonic.i:                                      ; preds = %if.end
  %3 = load i32, ptr %.atomictmp.i, align 4
  %4 = atomicrmw add ptr %this1.i, i32 %3 monotonic, align 4
  store i32 %4, ptr %atomic-temp.i, align 4
  br label %_ZNSt13__atomic_baseIiE9fetch_addEiSt12memory_order.exit

acquire.i:                                        ; preds = %if.end, %if.end
  %5 = load i32, ptr %.atomictmp.i, align 4
  %6 = atomicrmw add ptr %this1.i, i32 %5 acquire, align 4
  store i32 %6, ptr %atomic-temp.i, align 4
  br label %_ZNSt13__atomic_baseIiE9fetch_addEiSt12memory_order.exit

release.i:                                        ; preds = %if.end
  %7 = load i32, ptr %.atomictmp.i, align 4
  %8 = atomicrmw add ptr %this1.i, i32 %7 release, align 4
  store i32 %8, ptr %atomic-temp.i, align 4
  br label %_ZNSt13__atomic_baseIiE9fetch_addEiSt12memory_order.exit

acqrel.i:                                         ; preds = %if.end
  %9 = load i32, ptr %.atomictmp.i, align 4
  %10 = atomicrmw add ptr %this1.i, i32 %9 acq_rel, align 4
  store i32 %10, ptr %atomic-temp.i, align 4
  br label %_ZNSt13__atomic_baseIiE9fetch_addEiSt12memory_order.exit

seqcst.i:                                         ; preds = %if.end
  %11 = load i32, ptr %.atomictmp.i, align 4
  %12 = atomicrmw add ptr %this1.i, i32 %11 seq_cst, align 4
  store i32 %12, ptr %atomic-temp.i, align 4
  br label %_ZNSt13__atomic_baseIiE9fetch_addEiSt12memory_order.exit

_ZNSt13__atomic_baseIiE9fetch_addEiSt12memory_order.exit: ; preds = %seqcst.i, %acqrel.i, %release.i, %acquire.i, %monotonic.i
  %13 = load i32, ptr %atomic-temp.i, align 4
  %cmp = icmp eq i32 %13, 0
  br i1 %cmp, label %if.then3, label %if.end4

if.then3:                                         ; preds = %_ZNSt13__atomic_baseIiE9fetch_addEiSt12memory_order.exit
  store i1 true, ptr %retval, align 1
  br label %return

if.end4:                                          ; preds = %_ZNSt13__atomic_baseIiE9fetch_addEiSt12memory_order.exit
  %writesInProgress_5 = getelementptr inbounds %"class.facebook::velox::cache::SsdCache", ptr %this1, i32 0, i32 4
  %numShards_6 = getelementptr inbounds %"class.facebook::velox::cache::SsdCache", ptr %this1, i32 0, i32 1
  %14 = load i32, ptr %numShards_6, align 8
  store ptr %writesInProgress_5, ptr %this.addr.i8, align 8
  store i32 %14, ptr %__i.addr.i9, align 4
  store i32 5, ptr %__m.addr.i10, align 4
  %this1.i13 = load ptr, ptr %this.addr.i8, align 8
  %15 = load i32, ptr %__m.addr.i10, align 4
  %16 = load i32, ptr %__i.addr.i9, align 4
  store i32 %16, ptr %.atomictmp.i11, align 4
  switch i32 %15, label %monotonic.i18 [
    i32 1, label %acquire.i17
    i32 2, label %acquire.i17
    i32 3, label %release.i16
    i32 4, label %acqrel.i15
    i32 5, label %seqcst.i14
  ]

monotonic.i18:                                    ; preds = %if.end4
  %17 = load i32, ptr %.atomictmp.i11, align 4
  %18 = atomicrmw sub ptr %this1.i13, i32 %17 monotonic, align 4
  store i32 %18, ptr %atomic-temp.i12, align 4
  br label %_ZNSt13__atomic_baseIiE9fetch_subEiSt12memory_order.exit

acquire.i17:                                      ; preds = %if.end4, %if.end4
  %19 = load i32, ptr %.atomictmp.i11, align 4
  %20 = atomicrmw sub ptr %this1.i13, i32 %19 acquire, align 4
  store i32 %20, ptr %atomic-temp.i12, align 4
  br label %_ZNSt13__atomic_baseIiE9fetch_subEiSt12memory_order.exit

release.i16:                                      ; preds = %if.end4
  %21 = load i32, ptr %.atomictmp.i11, align 4
  %22 = atomicrmw sub ptr %this1.i13, i32 %21 release, align 4
  store i32 %22, ptr %atomic-temp.i12, align 4
  br label %_ZNSt13__atomic_baseIiE9fetch_subEiSt12memory_order.exit

acqrel.i15:                                       ; preds = %if.end4
  %23 = load i32, ptr %.atomictmp.i11, align 4
  %24 = atomicrmw sub ptr %this1.i13, i32 %23 acq_rel, align 4
  store i32 %24, ptr %atomic-temp.i12, align 4
  br label %_ZNSt13__atomic_baseIiE9fetch_subEiSt12memory_order.exit

seqcst.i14:                                       ; preds = %if.end4
  %25 = load i32, ptr %.atomictmp.i11, align 4
  %26 = atomicrmw sub ptr %this1.i13, i32 %25 seq_cst, align 4
  store i32 %26, ptr %atomic-temp.i12, align 4
  br label %_ZNSt13__atomic_baseIiE9fetch_subEiSt12memory_order.exit

_ZNSt13__atomic_baseIiE9fetch_subEiSt12memory_order.exit: ; preds = %seqcst.i14, %acqrel.i15, %release.i16, %acquire.i17, %monotonic.i18
  store i1 false, ptr %retval, align 1
  br label %return

return:                                           ; preds = %_ZNSt13__atomic_baseIiE9fetch_subEiSt12memory_order.exit, %if.then3, %if.then
  %27 = load i1, ptr %retval, align 1
  ret i1 %27
}