; Function Attrs: mustprogress nofree norecurse nounwind willreturn memory(argmem: readwrite) uwtable
define noundef zeroext i1 @_ZN8facebook5velox5cache8SsdCache10startWriteEv(ptr nocapture noundef nonnull align 8 dereferenceable(89) %this) local_unnamed_addr #6 align 2 personality ptr @__gxx_personality_v0 {
entry:
  %isShutdown_ = getelementptr inbounds i8, ptr %this, i64 88
  %0 = load atomic i8, ptr %isShutdown_ seq_cst, align 8
  %1 = and i8 %0, 1
  %tobool.i.i.not = icmp eq i8 %1, 0
  br i1 %tobool.i.i.not, label %if.end, label %return

if.end:                                           ; preds = %entry
  %writesInProgress_ = getelementptr inbounds i8, ptr %this, i64 64
  %numShards_ = getelementptr inbounds i8, ptr %this, i64 32
  %2 = load i32, ptr %numShards_, align 8
  %3 = atomicrmw add ptr %writesInProgress_, i32 %2 seq_cst, align 4
  %cmp = icmp eq i32 %3, 0
  br i1 %cmp, label %return, label %seqcst.i14

seqcst.i14:                                       ; preds = %if.end
  %4 = load i32, ptr %numShards_, align 8
  %5 = atomicrmw sub ptr %writesInProgress_, i32 %4 seq_cst, align 4
  br label %return

return:                                           ; preds = %if.end, %entry, %seqcst.i14
  %retval.0 = phi i1 [ false, %seqcst.i14 ], [ false, %entry ], [ true, %if.end ]
  ret i1 %retval.0
}